target datalayout = "e-m:e-p270:32:32-p271:32:32-p272:64:64-i64:64-i128:128-f80:128-n8:16:32:64-S128"
target triple = "x86_64-pc-linux-gnu"

%"class.cv::Point_.5" = type { float, float }
%"struct.std::_Vector_base.1" = type { %"struct.std::_Vector_base<cv::Point_<float>, std::allocator<cv::Point_<float>>>::_Vector_impl" }
%"struct.std::_Vector_base<cv::Point_<float>, std::allocator<cv::Point_<float>>>::_Vector_impl" = type { %"struct.std::_Vector_base<cv::Point_<float>, std::allocator<cv::Point_<float>>>::_Vector_impl_data" }
%"struct.std::_Vector_base<cv::Point_<float>, std::allocator<cv::Point_<float>>>::_Vector_impl_data" = type { ptr, ptr, ptr }

; Function Attrs: inlinehint mustprogress nounwind uwtable
define linkonce_odr hidden void @_ZN2cv6Point_IfEC2Eff(ptr noundef nonnull align 4 dereferenceable(8) %0, float noundef %1, float noundef %2) unnamed_addr #8 comdat align 2 {
  %4 = alloca ptr, align 8
  %5 = alloca float, align 4
  %6 = alloca float, align 4
  store ptr %0, ptr %4, align 8, !tbaa !52
  store float %1, ptr %5, align 4, !tbaa !39
  store float %2, ptr %6, align 4, !tbaa !39
  %7 = load ptr, ptr %4, align 8
  %8 = getelementptr inbounds nuw %"class.cv::Point_.5", ptr %7, i32 0, i32 0
  %9 = load float, ptr %5, align 4, !tbaa !39
  store float %9, ptr %8, align 4, !tbaa !41
  %10 = getelementptr inbounds nuw %"class.cv::Point_.5", ptr %7, i32 0, i32 1
  %11 = load float, ptr %6, align 4, !tbaa !39
  store float %11, ptr %10, align 4, !tbaa !43
  ret void
}

; Function Attrs: inlinehint mustprogress nounwind uwtable
define internal noundef float @_ZN2cvL13saturate_castIfEET_f(float noundef %0) #8 {
  %2 = alloca float, align 4
  store float %0, ptr %2, align 4, !tbaa !39
  %3 = load float, ptr %2, align 4, !tbaa !39
  ret float %3
}

; Function Attrs: inlinehint mustprogress nounwind uwtable
define linkonce_odr hidden void @_ZSt4swapIN2cv6Point_IfEEENSt9enable_ifIXsr6__and_ISt6__not_ISt15__is_tuple_likeIT_EESt21is_move_constructibleIS6_ESt18is_move_assignableIS6_EEE5valueEvE4typeERS6_SF_(ptr noundef nonnull align 4 dereferenceable(8) %0, ptr noundef nonnull align 4 dereferenceable(8) %1) #8 comdat {
  %3 = alloca ptr, align 8
  %4 = alloca ptr, align 8
  %5 = alloca %"class.cv::Point_.5", align 4
  store ptr %0, ptr %3, align 8, !tbaa !52
  store ptr %1, ptr %4, align 8, !tbaa !52
  call void @llvm.lifetime.start.p0(i64 8, ptr %5) #3
  %6 = load ptr, ptr %3, align 8, !tbaa !52
  call void @llvm.memcpy.p0.p0.i64(ptr align 4 %5, ptr align 4 %6, i64 8, i1 false), !tbaa.struct !50
  %7 = load ptr, ptr %4, align 8, !tbaa !52
  %8 = load ptr, ptr %3, align 8, !tbaa !52
  call void @llvm.memcpy.p0.p0.i64(ptr align 4 %8, ptr align 4 %7, i64 8, i1 false), !tbaa.struct !50
  %9 = load ptr, ptr %4, align 8, !tbaa !52
  call void @llvm.memcpy.p0.p0.i64(ptr align 4 %9, ptr align 4 %5, i64 8, i1 false), !tbaa.struct !50
  call void @llvm.lifetime.end.p0(i64 8, ptr %5) #3
  ret void
}

; Function Attrs: inlinehint mustprogress uwtable
define internal <2 x float> @_ZN2cvmiIfEENS_6Point_IT_EERKS3_S5_(ptr noundef nonnull align 4 dereferenceable(8) %0, ptr noundef nonnull align 4 dereferenceable(8) %1) #12 {
  %3 = alloca %"class.cv::Point_.5", align 4
  %4 = alloca ptr, align 8
  %5 = alloca ptr, align 8
  store ptr %0, ptr %4, align 8, !tbaa !52
  store ptr %1, ptr %5, align 8, !tbaa !52
  %6 = load ptr, ptr %4, align 8, !tbaa !52
  %7 = getelementptr inbounds nuw %"class.cv::Point_.5", ptr %6, i32 0, i32 0
  %8 = load float, ptr %7, align 4, !tbaa !41
  %9 = load ptr, ptr %5, align 8, !tbaa !52
  %10 = getelementptr inbounds nuw %"class.cv::Point_.5", ptr %9, i32 0, i32 0
  %11 = load float, ptr %10, align 4, !tbaa !41
  %12 = fsub float %8, %11
  %13 = call noundef float @_ZN2cvL13saturate_castIfEET_f(float noundef %12)
  %14 = load ptr, ptr %4, align 8, !tbaa !52
  %15 = getelementptr inbounds nuw %"class.cv::Point_.5", ptr %14, i32 0, i32 1
  %16 = load float, ptr %15, align 4, !tbaa !43
  %17 = load ptr, ptr %5, align 8, !tbaa !52
  %18 = getelementptr inbounds nuw %"class.cv::Point_.5", ptr %17, i32 0, i32 1
  %19 = load float, ptr %18, align 4, !tbaa !43
  %20 = fsub float %16, %19
  %21 = call noundef float @_ZN2cvL13saturate_castIfEET_f(float noundef %20)
  call void @_ZN2cv6Point_IfEC2Eff(ptr noundef nonnull align 4 dereferenceable(8) %3, float noundef %13, float noundef %21)
  %22 = load <2 x float>, ptr %3, align 4
  ret <2 x float> %22
}

; Function Attrs: mustprogress nounwind uwtable
define linkonce_odr hidden noundef nonnull align 4 dereferenceable(8) ptr @_ZNSt6vectorIN2cv6Point_IfEESaIS2_EEixEm(ptr noundef nonnull align 8 dereferenceable(24) %0, i64 noundef %1) #6 comdat align 2 {
  %3 = alloca ptr, align 8
  %4 = alloca i64, align 8
  store ptr %0, ptr %3, align 8, !tbaa !3
  store i64 %1, ptr %4, align 8, !tbaa !22
  %5 = load ptr, ptr %3, align 8
  %6 = getelementptr inbounds nuw %"struct.std::_Vector_base.1", ptr %5, i32 0, i32 0
  %7 = getelementptr inbounds nuw %"struct.std::_Vector_base<cv::Point_<float>, std::allocator<cv::Point_<float>>>::_Vector_impl_data", ptr %6, i32 0, i32 0
  %8 = load ptr, ptr %7, align 8, !tbaa !49
  %9 = load i64, ptr %4, align 8, !tbaa !22
  %10 = getelementptr inbounds nuw %"class.cv::Point_.5", ptr %8, i64 %9
  ret ptr %10
}

; Function Attrs: mustprogress uwtable
define hidden void @_ZN2cv3mcc17polyanticlockwiseERSt6vectorINS_6Point_IfEESaIS3_EE(ptr noundef nonnull align 8 dereferenceable(24) %0) #11 {
  %2 = alloca ptr, align 8
  %3 = alloca %"class.cv::Point_.5", align 4
  %4 = alloca %"class.cv::Point_.5", align 4
  store ptr %0, ptr %2, align 8, !tbaa !3
  call void @llvm.lifetime.start.p0(i64 8, ptr %3) #3
  %5 = load ptr, ptr %2, align 8, !tbaa !3
  %6 = call noundef nonnull align 4 dereferenceable(8) ptr @_ZNSt6vectorIN2cv6Point_IfEESaIS2_EEixEm(ptr noundef nonnull align 8 dereferenceable(24) %5, i64 noundef 1) #3
  %7 = load ptr, ptr %2, align 8, !tbaa !3
  %8 = call noundef nonnull align 4 dereferenceable(8) ptr @_ZNSt6vectorIN2cv6Point_IfEESaIS2_EEixEm(ptr noundef nonnull align 8 dereferenceable(24) %7, i64 noundef 0) #3
  %9 = call <2 x float> @_ZN2cvmiIfEENS_6Point_IT_EERKS3_S5_(ptr noundef nonnull align 4 dereferenceable(8) %6, ptr noundef nonnull align 4 dereferenceable(8) %8)
  store <2 x float> %9, ptr %3, align 4
  call void @llvm.lifetime.start.p0(i64 8, ptr %4) #3
  %10 = load ptr, ptr %2, align 8, !tbaa !3
  %11 = call noundef nonnull align 4 dereferenceable(8) ptr @_ZNSt6vectorIN2cv6Point_IfEESaIS2_EEixEm(ptr noundef nonnull align 8 dereferenceable(24) %10, i64 noundef 2) #3
  %12 = load ptr, ptr %2, align 8, !tbaa !3
  %13 = call noundef nonnull align 4 dereferenceable(8) ptr @_ZNSt6vectorIN2cv6Point_IfEESaIS2_EEixEm(ptr noundef nonnull align 8 dereferenceable(24) %12, i64 noundef 0) #3
  %14 = call <2 x float> @_ZN2cvmiIfEENS_6Point_IT_EERKS3_S5_(ptr noundef nonnull align 4 dereferenceable(8) %11, ptr noundef nonnull align 4 dereferenceable(8) %13)
  store <2 x float> %14, ptr %4, align 4
  %15 = getelementptr inbounds nuw %"class.cv::Point_.5", ptr %3, i32 0, i32 0
  %16 = load float, ptr %15, align 4, !tbaa !41
  %17 = getelementptr inbounds nuw %"class.cv::Point_.5", ptr %4, i32 0, i32 1
  %18 = load float, ptr %17, align 4, !tbaa !43
  %19 = getelementptr inbounds nuw %"class.cv::Point_.5", ptr %3, i32 0, i32 1
  %20 = load float, ptr %19, align 4, !tbaa !43
  %21 = getelementptr inbounds nuw %"class.cv::Point_.5", ptr %4, i32 0, i32 0
  %22 = load float, ptr %21, align 4, !tbaa !41
  %23 = fmul float %20, %22
  %24 = fneg float %23
  %25 = call float @llvm.fmuladd.f32(float %16, float %18, float %24)
  %26 = fpext float %25 to double
  %27 = fcmp olt double %26, 0.000000e+00
  br i1 %27, label %28, label %33

28:                                               ; preds = %1
  %29 = load ptr, ptr %2, align 8, !tbaa !3
  %30 = call noundef nonnull align 4 dereferenceable(8) ptr @_ZNSt6vectorIN2cv6Point_IfEESaIS2_EEixEm(ptr noundef nonnull align 8 dereferenceable(24) %29, i64 noundef 1) #3
  %31 = load ptr, ptr %2, align 8, !tbaa !3
  %32 = call noundef nonnull align 4 dereferenceable(8) ptr @_ZNSt6vectorIN2cv6Point_IfEESaIS2_EEixEm(ptr noundef nonnull align 8 dereferenceable(24) %31, i64 noundef 3) #3
  call void @_ZSt4swapIN2cv6Point_IfEEENSt9enable_ifIXsr6__and_ISt6__not_ISt15__is_tuple_likeIT_EESt21is_move_constructibleIS6_ESt18is_move_assignableIS6_EEE5valueEvE4typeERS6_SF_(ptr noundef nonnull align 4 dereferenceable(8) %30, ptr noundef nonnull align 4 dereferenceable(8) %32) #3
  br label %33

33:                                               ; preds = %28, %1
  call void @llvm.lifetime.end.p0(i64 8, ptr %4) #3
  call void @llvm.lifetime.end.p0(i64 8, ptr %3) #3
  ret void
}