; Function Attrs: mustprogress nofree norecurse nosync nounwind willreturn memory(readwrite, inaccessiblemem: none) uwtable
define hidden void @_ZN2cv3mcc17polyanticlockwiseERSt6vectorINS_6Point_IfEESaIS3_EE(ptr noundef nonnull readonly align 8 captures(none) dereferenceable(24) %0) local_unnamed_addr #8 {
  %2 = load ptr, ptr %0, align 8, !tbaa !22
  %3 = getelementptr inbounds nuw i8, ptr %2, i64 8
  %.val = load float, ptr %3, align 4, !tbaa !23
  %4 = getelementptr i8, ptr %2, i64 12
  %.val7 = load float, ptr %4, align 4, !tbaa !26
  %.val8 = load float, ptr %2, align 4, !tbaa !23
  %5 = getelementptr i8, ptr %2, i64 4
  %.val9 = load float, ptr %5, align 4, !tbaa !26
  %6 = fsub float %.val, %.val8
  %7 = fsub float %.val7, %.val9
  %8 = getelementptr inbounds nuw i8, ptr %2, i64 16
  %.val10 = load float, ptr %8, align 4, !tbaa !23
  %9 = getelementptr i8, ptr %2, i64 20
  %.val11 = load float, ptr %9, align 4, !tbaa !26
  %10 = fsub float %.val10, %.val8
  %11 = fsub float %.val11, %.val9
  %12 = fneg float %10
  %13 = fmul float %7, %12
  %14 = tail call float @llvm.fmuladd.f32(float %6, float %11, float %13)
  %15 = fcmp olt float %14, 0.000000e+00
  br i1 %15, label %16, label %20

16:                                               ; preds = %1
  %17 = getelementptr inbounds nuw i8, ptr %2, i64 24
  %18 = load i64, ptr %3, align 4
  %19 = load i64, ptr %17, align 4
  store i64 %19, ptr %3, align 4
  store i64 %18, ptr %17, align 4
  br label %20

20:                                               ; preds = %16, %1
  ret void
}